; Function Attrs: mustprogress nofree norecurse nosync nounwind willreturn memory(readwrite, inaccessiblemem: none) uwtable
define hidden void @Curl_llist_append(ptr noundef %0, ptr noundef %1, ptr noundef initializes((0, 16)) %2) local_unnamed_addr #1 {
  %4 = getelementptr inbounds nuw i8, ptr %0, i64 8
  %5 = load ptr, ptr %4, align 8, !tbaa !16
  %6 = getelementptr inbounds nuw i8, ptr %2, i64 8
  store ptr %1, ptr %6, align 8, !tbaa !11
  store ptr %0, ptr %2, align 8, !tbaa !14
  %7 = getelementptr inbounds nuw i8, ptr %0, i64 24
  %8 = load i64, ptr %7, align 8, !tbaa !3
  %9 = icmp eq i64 %8, 0
  br i1 %9, label %10, label %12

10:                                               ; preds = %3
  store ptr %2, ptr %0, align 8, !tbaa !15
  %11 = getelementptr inbounds nuw i8, ptr %2, i64 16
  tail call void @llvm.memset.p0.i64(ptr noundef nonnull align 8 dereferenceable(16) %11, i8 0, i64 16, i1 false)
  store ptr %2, ptr %4, align 8, !tbaa !16
  br label %Curl_llist_insert_next.exit

12:                                               ; preds = %3
  %.not.i = icmp eq ptr %5, null
  %13 = getelementptr inbounds nuw i8, ptr %5, i64 24
  %.in.i = select i1 %.not.i, ptr %0, ptr %13
  %14 = load ptr, ptr %.in.i, align 8, !tbaa !17
  %15 = getelementptr inbounds nuw i8, ptr %2, i64 24
  store ptr %14, ptr %15, align 8, !tbaa !18
  %16 = getelementptr inbounds nuw i8, ptr %2, i64 16
  store ptr %5, ptr %16, align 8, !tbaa !19
  br i1 %.not.i, label %22, label %17

17:                                               ; preds = %12
  %18 = load ptr, ptr %13, align 8, !tbaa !18
  %.not32.i = icmp eq ptr %18, null
  br i1 %.not32.i, label %21, label %19

19:                                               ; preds = %17
  %20 = getelementptr inbounds nuw i8, ptr %18, i64 16
  store ptr %2, ptr %20, align 8, !tbaa !19
  br label %25

21:                                               ; preds = %17
  store ptr %2, ptr %4, align 8, !tbaa !16
  br label %25

22:                                               ; preds = %12
  %23 = load ptr, ptr %0, align 8, !tbaa !15
  %24 = getelementptr inbounds nuw i8, ptr %23, i64 16
  store ptr %2, ptr %24, align 8, !tbaa !19
  store ptr %2, ptr %0, align 8, !tbaa !15
  br label %Curl_llist_insert_next.exit

25:                                               ; preds = %21, %19
  store ptr %2, ptr %13, align 8, !tbaa !18
  br label %Curl_llist_insert_next.exit

Curl_llist_insert_next.exit:                      ; preds = %10, %22, %25
  %26 = add i64 %8, 1
  store i64 %26, ptr %7, align 8, !tbaa !3
  ret void
}